target datalayout = "e-m:e-p270:32:32-p271:32:32-p272:64:64-i64:64-i128:128-f80:128-n8:16:32:64-S128"
target triple = "x86_64-pc-linux-gnu"

; Function Attrs: nounwind uwtable
define internal zeroext i8 @clip_pixel(i32 noundef %0) #0 {
  %2 = alloca i32, align 4
  store i32 %0, ptr %2, align 4
  %3 = load i32, ptr %2, align 4
  %4 = icmp sgt i32 %3, 255
  br i1 %4, label %5, label %6

5:                                                ; preds = %1
  br label %14

6:                                                ; preds = %1
  %7 = load i32, ptr %2, align 4
  %8 = icmp slt i32 %7, 0
  br i1 %8, label %9, label %10

9:                                                ; preds = %6
  br label %12

10:                                               ; preds = %6
  %11 = load i32, ptr %2, align 4
  br label %12

12:                                               ; preds = %10, %9
  %13 = phi i32 [ 0, %9 ], [ %11, %10 ]
  br label %14

14:                                               ; preds = %12, %5
  %15 = phi i32 [ 255, %5 ], [ %13, %12 ]
  %16 = trunc i32 %15 to i8
  ret i8 %16
}

; Function Attrs: nounwind uwtable
define internal i32 @horz_scalar_product(ptr noundef %0, ptr noundef %1) #0 {
  %3 = alloca ptr, align 8
  %4 = alloca ptr, align 8
  %5 = alloca i32, align 4
  %6 = alloca i32, align 4
  store ptr %0, ptr %3, align 8
  store ptr %1, ptr %4, align 8
  store i32 0, ptr %5, align 4
  store i32 0, ptr %6, align 4
  br label %7

7:                                                ; preds = %26, %2
  %8 = load i32, ptr %6, align 4
  %9 = icmp slt i32 %8, 8
  br i1 %9, label %10, label %29

10:                                               ; preds = %7
  %11 = load ptr, ptr %3, align 8
  %12 = load i32, ptr %6, align 4
  %13 = sext i32 %12 to i64
  %14 = getelementptr inbounds i8, ptr %11, i64 %13
  %15 = load i8, ptr %14, align 1
  %16 = zext i8 %15 to i32
  %17 = load ptr, ptr %4, align 8
  %18 = load i32, ptr %6, align 4
  %19 = sext i32 %18 to i64
  %20 = getelementptr inbounds i16, ptr %17, i64 %19
  %21 = load i16, ptr %20, align 2
  %22 = sext i16 %21 to i32
  %23 = mul nsw i32 %16, %22
  %24 = load i32, ptr %5, align 4
  %25 = add nsw i32 %24, %23
  store i32 %25, ptr %5, align 4
  br label %26

26:                                               ; preds = %10
  %27 = load i32, ptr %6, align 4
  %28 = add nsw i32 %27, 1
  store i32 %28, ptr %6, align 4
  br label %7, !llvm.loop !15

29:                                               ; preds = %7
  %30 = load i32, ptr %5, align 4
  ret i32 %30
}

; Function Attrs: nounwind uwtable
define internal void @convolve_horiz(ptr noundef %0, i64 noundef %1, ptr noundef %2, i64 noundef %3, ptr noundef %4, i32 noundef %5, i32 noundef %6, i32 noundef %7, i32 noundef %8) #0 {
  %10 = alloca ptr, align 8
  %11 = alloca i64, align 8
  %12 = alloca ptr, align 8
  %13 = alloca i64, align 8
  %14 = alloca ptr, align 8
  %15 = alloca i32, align 4
  %16 = alloca i32, align 4
  %17 = alloca i32, align 4
  %18 = alloca i32, align 4
  %19 = alloca i32, align 4
  %20 = alloca i32, align 4
  %21 = alloca i32, align 4
  %22 = alloca ptr, align 8
  %23 = alloca ptr, align 8
  %24 = alloca i32, align 4
  store ptr %0, ptr %10, align 8
  store i64 %1, ptr %11, align 8
  store ptr %2, ptr %12, align 8
  store i64 %3, ptr %13, align 8
  store ptr %4, ptr %14, align 8
  store i32 %5, ptr %15, align 4
  store i32 %6, ptr %16, align 4
  store i32 %7, ptr %17, align 4
  store i32 %8, ptr %18, align 4
  %25 = load ptr, ptr %10, align 8
  %26 = getelementptr inbounds i8, ptr %25, i64 -3
  store ptr %26, ptr %10, align 8
  store i32 0, ptr %19, align 4
  br label %27

27:                                               ; preds = %73, %9
  %28 = load i32, ptr %19, align 4
  %29 = load i32, ptr %18, align 4
  %30 = icmp slt i32 %28, %29
  br i1 %30, label %31, label %76

31:                                               ; preds = %27
  %32 = load i32, ptr %15, align 4
  store i32 %32, ptr %20, align 4
  store i32 0, ptr %21, align 4
  br label %33

33:                                               ; preds = %63, %31
  %34 = load i32, ptr %21, align 4
  %35 = load i32, ptr %17, align 4
  %36 = icmp slt i32 %34, %35
  br i1 %36, label %37, label %66

37:                                               ; preds = %33
  %38 = load ptr, ptr %10, align 8
  %39 = load i32, ptr %20, align 4
  %40 = ashr i32 %39, 4
  %41 = sext i32 %40 to i64
  %42 = getelementptr inbounds i8, ptr %38, i64 %41
  store ptr %42, ptr %22, align 8
  %43 = load ptr, ptr %14, align 8
  %44 = load i32, ptr %20, align 4
  %45 = and i32 %44, 15
  %46 = sext i32 %45 to i64
  %47 = getelementptr inbounds [8 x i16], ptr %43, i64 %46
  %48 = getelementptr inbounds [8 x i16], ptr %47, i64 0, i64 0
  store ptr %48, ptr %23, align 8
  %49 = load ptr, ptr %22, align 8
  %50 = load ptr, ptr %23, align 8
  %51 = call i32 @horz_scalar_product(ptr noundef %49, ptr noundef %50)
  store i32 %51, ptr %24, align 4
  %52 = load i32, ptr %24, align 4
  %53 = add nsw i32 %52, 64
  %54 = ashr i32 %53, 7
  %55 = call zeroext i8 @clip_pixel(i32 noundef %54)
  %56 = load ptr, ptr %12, align 8
  %57 = load i32, ptr %21, align 4
  %58 = sext i32 %57 to i64
  %59 = getelementptr inbounds i8, ptr %56, i64 %58
  store i8 %55, ptr %59, align 1
  %60 = load i32, ptr %16, align 4
  %61 = load i32, ptr %20, align 4
  %62 = add nsw i32 %61, %60
  store i32 %62, ptr %20, align 4
  br label %63

63:                                               ; preds = %37
  %64 = load i32, ptr %21, align 4
  %65 = add nsw i32 %64, 1
  store i32 %65, ptr %21, align 4
  br label %33, !llvm.loop !4

66:                                               ; preds = %33
  %67 = load i64, ptr %11, align 8
  %68 = load ptr, ptr %10, align 8
  %69 = getelementptr inbounds i8, ptr %68, i64 %67
  store ptr %69, ptr %10, align 8
  %70 = load i64, ptr %13, align 8
  %71 = load ptr, ptr %12, align 8
  %72 = getelementptr inbounds i8, ptr %71, i64 %70
  store ptr %72, ptr %12, align 8
  br label %73

73:                                               ; preds = %66
  %74 = load i32, ptr %19, align 4
  %75 = add nsw i32 %74, 1
  store i32 %75, ptr %19, align 4
  br label %27, !llvm.loop !6

76:                                               ; preds = %27
  ret void
}

; Function Attrs: nounwind uwtable
define internal i32 @get_filter_offset(ptr noundef %0, ptr noundef %1) #0 {
  %3 = alloca ptr, align 8
  %4 = alloca ptr, align 8
  store ptr %0, ptr %3, align 8
  store ptr %1, ptr %4, align 8
  %5 = load ptr, ptr %3, align 8
  %6 = ptrtoint ptr %5 to i64
  %7 = inttoptr i64 %6 to ptr
  %8 = load ptr, ptr %4, align 8
  %9 = ptrtoint ptr %7 to i64
  %10 = ptrtoint ptr %8 to i64
  %11 = sub i64 %9, %10
  %12 = sdiv exact i64 %11, 16
  %13 = trunc i64 %12 to i32
  ret i32 %13
}

; Function Attrs: nounwind uwtable
define internal ptr @get_filter_base(ptr noundef %0) #0 {
  %2 = alloca ptr, align 8
  store ptr %0, ptr %2, align 8
  %3 = load ptr, ptr %2, align 8
  %4 = ptrtoint ptr %3 to i64
  %5 = and i64 %4, -256
  %6 = inttoptr i64 %5 to ptr
  ret ptr %6
}

; Function Attrs: nounwind uwtable
define hidden void @aom_convolve8_horiz_c(ptr noundef %0, i64 noundef %1, ptr noundef %2, i64 noundef %3, ptr noundef %4, i32 noundef %5, ptr noundef %6, i32 noundef %7, i32 noundef %8, i32 noundef %9) #0 {
  %11 = alloca ptr, align 8
  %12 = alloca i64, align 8
  %13 = alloca ptr, align 8
  %14 = alloca i64, align 8
  %15 = alloca ptr, align 8
  %16 = alloca i32, align 4
  %17 = alloca ptr, align 8
  %18 = alloca i32, align 4
  %19 = alloca i32, align 4
  %20 = alloca i32, align 4
  %21 = alloca ptr, align 8
  %22 = alloca i32, align 4
  store ptr %0, ptr %11, align 8
  store i64 %1, ptr %12, align 8
  store ptr %2, ptr %13, align 8
  store i64 %3, ptr %14, align 8
  store ptr %4, ptr %15, align 8
  store i32 %5, ptr %16, align 4
  store ptr %6, ptr %17, align 8
  store i32 %7, ptr %18, align 4
  store i32 %8, ptr %19, align 4
  store i32 %9, ptr %20, align 4
  %23 = load ptr, ptr %15, align 8
  %24 = call ptr @get_filter_base(ptr noundef %23)
  store ptr %24, ptr %21, align 8
  %25 = load ptr, ptr %15, align 8
  %26 = load ptr, ptr %21, align 8
  %27 = call i32 @get_filter_offset(ptr noundef %25, ptr noundef %26)
  store i32 %27, ptr %22, align 4
  %28 = load ptr, ptr %11, align 8
  %29 = load i64, ptr %12, align 8
  %30 = load ptr, ptr %13, align 8
  %31 = load i64, ptr %14, align 8
  %32 = load ptr, ptr %21, align 8
  %33 = load i32, ptr %22, align 4
  %34 = load i32, ptr %16, align 4
  %35 = load i32, ptr %19, align 4
  %36 = load i32, ptr %20, align 4
  call void @convolve_horiz(ptr noundef %28, i64 noundef %29, ptr noundef %30, i64 noundef %31, ptr noundef %32, i32 noundef %33, i32 noundef %34, i32 noundef %35, i32 noundef %36)
  ret void
}