; Function Attrs: nofree norecurse nosync nounwind memory(read, argmem: readwrite, inaccessiblemem: none) uwtable
define hidden void @aom_convolve8_horiz_c(ptr nocapture noundef readonly %0, i64 noundef %1, ptr nocapture noundef writeonly %2, i64 noundef %3, ptr noundef %4, i32 noundef %5, ptr nocapture noundef readnone %6, i32 noundef %7, i32 noundef %8, i32 noundef %9) local_unnamed_addr #0 {
  %11 = ptrtoint ptr %4 to i64
  %12 = and i64 %11, -256
  %13 = inttoptr i64 %12 to ptr
  %14 = trunc i64 %11 to i32
  %15 = lshr i32 %14, 4
  %16 = and i32 %15, 15
  %17 = icmp sgt i32 %9, 0
  %18 = icmp sgt i32 %8, 0
  %or.cond.i = and i1 %18, %17
  br i1 %or.cond.i, label %.preheader.us.preheader.i, label %convolve_horiz.exit

.preheader.us.preheader.i:                        ; preds = %10
  %19 = getelementptr inbounds i8, ptr %0, i64 -3
  %wide.trip.count.i = zext nneg i32 %8 to i64
  br label %.preheader.us.i

.preheader.us.i:                                  ; preds = %._crit_edge.us.i, %.preheader.us.preheader.i
  %.030.us.i = phi ptr [ %43, %._crit_edge.us.i ], [ %19, %.preheader.us.preheader.i ]
  %.02229.us.i = phi ptr [ %44, %._crit_edge.us.i ], [ %2, %.preheader.us.preheader.i ]
  %.02328.us.i = phi i32 [ %45, %._crit_edge.us.i ], [ 0, %.preheader.us.preheader.i ]
  br label %20

20:                                               ; preds = %horz_scalar_product.exit.us.i, %.preheader.us.i
  %indvars.iv.i = phi i64 [ 0, %.preheader.us.i ], [ %indvars.iv.next.i, %horz_scalar_product.exit.us.i ]
  %.02526.us.i = phi i32 [ %16, %.preheader.us.i ], [ %42, %horz_scalar_product.exit.us.i ]
  %21 = ashr i32 %.02526.us.i, 4
  %22 = sext i32 %21 to i64
  %23 = getelementptr inbounds i8, ptr %.030.us.i, i64 %22
  %24 = and i32 %.02526.us.i, 15
  %25 = zext nneg i32 %24 to i64
  %26 = getelementptr inbounds [8 x i16], ptr %13, i64 %25
  br label %27

27:                                               ; preds = %27, %20
  %indvars.iv.i.us.i = phi i64 [ 0, %20 ], [ %indvars.iv.next.i.us.i, %27 ]
  %.078.i.us.i = phi i32 [ 0, %20 ], [ %35, %27 ]
  %28 = getelementptr inbounds i8, ptr %23, i64 %indvars.iv.i.us.i
  %29 = load i8, ptr %28, align 1
  %30 = zext i8 %29 to i32
  %31 = getelementptr inbounds i16, ptr %26, i64 %indvars.iv.i.us.i
  %32 = load i16, ptr %31, align 2
  %33 = sext i16 %32 to i32
  %34 = mul nsw i32 %33, %30
  %35 = add nsw i32 %34, %.078.i.us.i
  %indvars.iv.next.i.us.i = add nuw nsw i64 %indvars.iv.i.us.i, 1
  %exitcond.not.i.us.i = icmp eq i64 %indvars.iv.next.i.us.i, 8
  br i1 %exitcond.not.i.us.i, label %horz_scalar_product.exit.us.i, label %27, !llvm.loop !4

horz_scalar_product.exit.us.i:                    ; preds = %27
  %36 = add nsw i32 %35, 64
  %37 = ashr i32 %36, 7
  %38 = tail call i32 @llvm.smax.i32(i32 %37, i32 0)
  %39 = tail call i32 @llvm.umin.i32(i32 %38, i32 255)
  %40 = trunc nuw i32 %39 to i8
  %41 = getelementptr inbounds i8, ptr %.02229.us.i, i64 %indvars.iv.i
  store i8 %40, ptr %41, align 1
  %42 = add nsw i32 %.02526.us.i, %5
  %indvars.iv.next.i = add nuw nsw i64 %indvars.iv.i, 1
  %exitcond.not.i = icmp eq i64 %indvars.iv.next.i, %wide.trip.count.i
  br i1 %exitcond.not.i, label %._crit_edge.us.i, label %20, !llvm.loop !6

._crit_edge.us.i:                                 ; preds = %horz_scalar_product.exit.us.i
  %43 = getelementptr inbounds i8, ptr %.030.us.i, i64 %1
  %44 = getelementptr inbounds i8, ptr %.02229.us.i, i64 %3
  %45 = add nuw nsw i32 %.02328.us.i, 1
  %exitcond34.not.i = icmp eq i32 %45, %9
  br i1 %exitcond34.not.i, label %convolve_horiz.exit, label %.preheader.us.i, !llvm.loop !7

convolve_horiz.exit:                              ; preds = %._crit_edge.us.i, %10
  ret void
}